target datalayout = "e-m:e-p270:32:32-p271:32:32-p272:64:64-i64:64-i128:128-f80:128-n8:16:32:64-S128"
target triple = "x86_64-pc-linux-gnu"

%struct._exr_decode_pipeline = type { i64, ptr, i16, i16, i32, ptr, %struct.exr_chunk_info_t, i32, i32, i64, ptr, ptr, i64, ptr, i64, ptr, i64, ptr, i64, ptr, i64, ptr, i64, ptr, ptr, ptr, ptr, ptr, ptr, [5 x %struct.exr_coding_channel_info_t] }
%struct.exr_chunk_info_t = type { i32, i32, i32, i32, i32, i8, i8, i8, i8, i64, i64, i64, i64, i64 }
%struct.exr_coding_channel_info_t = type { ptr, i32, i32, i32, i32, i8, i8, i16, i16, i16, i32, i32, %union.anon }
%union.anon = type { ptr }
%union.imath_half_uif = type { i32 }

; Function Attrs: inlinehint nounwind uwtable
define internal float @imath_half_to_float(i16 noundef zeroext %0) #2 {
  %2 = alloca i16, align 2
  %3 = alloca %union.imath_half_uif, align 4
  %4 = alloca i32, align 4
  %5 = alloca i32, align 4
  store i16 %0, ptr %2, align 2, !tbaa !44
  call void @llvm.lifetime.start.p0(i64 4, ptr %3) #6
  call void @llvm.lifetime.start.p0(i64 4, ptr %4) #6
  %6 = load i16, ptr %2, align 2, !tbaa !44
  %7 = zext i16 %6 to i32
  %8 = shl i32 %7, 17
  %9 = lshr i32 %8, 4
  store i32 %9, ptr %4, align 4, !tbaa !8
  %10 = load i16, ptr %2, align 2, !tbaa !44
  %11 = zext i16 %10 to i32
  %12 = ashr i32 %11, 15
  %13 = shl i32 %12, 31
  store i32 %13, ptr %3, align 4, !tbaa !10
  %14 = load i32, ptr %4, align 4, !tbaa !8
  %15 = icmp uge i32 %14, 8388608
  %16 = zext i1 %15 to i32
  %17 = sext i32 %16 to i64
  %18 = call i64 @llvm.expect.i64(i64 %17, i64 1)
  %19 = icmp ne i64 %18, 0
  br i1 %19, label %20, label %37

20:                                               ; preds = %1
  %21 = load i32, ptr %4, align 4, !tbaa !8
  %22 = load i32, ptr %3, align 4, !tbaa !10
  %23 = or i32 %22, %21
  store i32 %23, ptr %3, align 4, !tbaa !10
  %24 = load i32, ptr %4, align 4, !tbaa !8
  %25 = icmp ult i32 %24, 260046848
  %26 = zext i1 %25 to i32
  %27 = sext i32 %26 to i64
  %28 = call i64 @llvm.expect.i64(i64 %27, i64 1)
  %29 = icmp ne i64 %28, 0
  br i1 %29, label %30, label %33

30:                                               ; preds = %20
  %31 = load i32, ptr %3, align 4, !tbaa !10
  %32 = add i32 %31, 939524096
  store i32 %32, ptr %3, align 4, !tbaa !10
  br label %36

33:                                               ; preds = %20
  %34 = load i32, ptr %3, align 4, !tbaa !10
  %35 = or i32 %34, 2139095040
  store i32 %35, ptr %3, align 4, !tbaa !10
  br label %36

36:                                               ; preds = %33, %30
  br label %57

37:                                               ; preds = %1
  %38 = load i32, ptr %4, align 4, !tbaa !8
  %39 = icmp ne i32 %38, 0
  br i1 %39, label %40, label %56

40:                                               ; preds = %37
  call void @llvm.lifetime.start.p0(i64 4, ptr %5) #6
  %41 = load i32, ptr %4, align 4, !tbaa !8
  %42 = call i32 @llvm.ctlz.i32(i32 %41, i1 true)
  store i32 %42, ptr %5, align 4, !tbaa !8
  %43 = load i32, ptr %5, align 4, !tbaa !8
  %44 = sub i32 %43, 8
  store i32 %44, ptr %5, align 4, !tbaa !8
  %45 = load i32, ptr %3, align 4, !tbaa !10
  %46 = or i32 %45, 947912704
  store i32 %46, ptr %3, align 4, !tbaa !10
  %47 = load i32, ptr %4, align 4, !tbaa !8
  %48 = load i32, ptr %5, align 4, !tbaa !8
  %49 = shl i32 %47, %48
  %50 = load i32, ptr %3, align 4, !tbaa !10
  %51 = or i32 %50, %49
  store i32 %51, ptr %3, align 4, !tbaa !10
  %52 = load i32, ptr %5, align 4, !tbaa !8
  %53 = shl i32 %52, 23
  %54 = load i32, ptr %3, align 4, !tbaa !10
  %55 = sub i32 %54, %53
  store i32 %55, ptr %3, align 4, !tbaa !10
  call void @llvm.lifetime.end.p0(i64 4, ptr %5) #6
  br label %56

56:                                               ; preds = %40, %37
  br label %57

57:                                               ; preds = %56, %36
  %58 = load float, ptr %3, align 4, !tbaa !10
  call void @llvm.lifetime.end.p0(i64 4, ptr %4) #6
  call void @llvm.lifetime.end.p0(i64 4, ptr %3) #6
  ret float %58
}

; Function Attrs: inlinehint nounwind uwtable
define internal zeroext i16 @__uint16_identity(i16 noundef zeroext %0) #2 {
  %2 = alloca i16, align 2
  store i16 %0, ptr %2, align 2, !tbaa !44
  %3 = load i16, ptr %2, align 2, !tbaa !44
  ret i16 %3
}

; Function Attrs: inlinehint nounwind uwtable
define internal float @half_to_float(i16 noundef zeroext %0) #2 {
  %2 = alloca i16, align 2
  store i16 %0, ptr %2, align 2, !tbaa !44
  %3 = load i16, ptr %2, align 2, !tbaa !44
  %4 = call float @imath_half_to_float(i16 noundef zeroext %3)
  ret float %4
}

; Function Attrs: inlinehint nounwind uwtable
define internal zeroext i16 @one_to_native16(i16 noundef zeroext %0) #2 {
  %2 = alloca i16, align 2
  store i16 %0, ptr %2, align 2, !tbaa !44
  %3 = load i16, ptr %2, align 2, !tbaa !44
  %4 = call zeroext i16 @__uint16_identity(i16 noundef zeroext %3)
  ret i16 %4
}

; Function Attrs: nounwind uwtable
define internal i32 @unpack_half_to_float_3chan_interleave(ptr noundef %0) #0 {
  %2 = alloca ptr, align 8
  %3 = alloca ptr, align 8
  %4 = alloca ptr, align 8
  %5 = alloca ptr, align 8
  %6 = alloca ptr, align 8
  %7 = alloca ptr, align 8
  %8 = alloca i32, align 4
  %9 = alloca i32, align 4
  %10 = alloca i32, align 4
  %11 = alloca i32, align 4
  %12 = alloca i32, align 4
  %13 = alloca ptr, align 8
  %14 = alloca i32, align 4
  store ptr %0, ptr %2, align 8, !tbaa !3
  call void @llvm.lifetime.start.p0(i64 8, ptr %3) #6
  %15 = load ptr, ptr %2, align 8, !tbaa !3
  %16 = getelementptr inbounds nuw %struct._exr_decode_pipeline, ptr %15, i32 0, i32 13
  %17 = load ptr, ptr %16, align 8, !tbaa !19
  store ptr %17, ptr %3, align 8, !tbaa !20
  call void @llvm.lifetime.start.p0(i64 8, ptr %4) #6
  call void @llvm.lifetime.start.p0(i64 8, ptr %5) #6
  call void @llvm.lifetime.start.p0(i64 8, ptr %6) #6
  call void @llvm.lifetime.start.p0(i64 8, ptr %7) #6
  call void @llvm.lifetime.start.p0(i64 4, ptr %8) #6
  call void @llvm.lifetime.start.p0(i64 4, ptr %9) #6
  call void @llvm.lifetime.start.p0(i64 4, ptr %10) #6
  %18 = load ptr, ptr %2, align 8, !tbaa !3
  %19 = getelementptr inbounds nuw %struct._exr_decode_pipeline, ptr %18, i32 0, i32 1
  %20 = load ptr, ptr %19, align 8, !tbaa !28
  %21 = getelementptr inbounds %struct.exr_coding_channel_info_t, ptr %20, i64 0
  %22 = getelementptr inbounds nuw %struct.exr_coding_channel_info_t, ptr %21, i32 0, i32 2
  %23 = load i32, ptr %22, align 4, !tbaa !72
  store i32 %23, ptr %8, align 4, !tbaa !8
  %24 = load ptr, ptr %2, align 8, !tbaa !3
  %25 = getelementptr inbounds nuw %struct._exr_decode_pipeline, ptr %24, i32 0, i32 6
  %26 = getelementptr inbounds nuw %struct.exr_chunk_info_t, ptr %25, i32 0, i32 3
  %27 = load i32, ptr %26, align 4, !tbaa !25
  %28 = load ptr, ptr %2, align 8, !tbaa !3
  %29 = getelementptr inbounds nuw %struct._exr_decode_pipeline, ptr %28, i32 0, i32 8
  %30 = load i32, ptr %29, align 4, !tbaa !26
  %31 = sub nsw i32 %27, %30
  store i32 %31, ptr %9, align 4, !tbaa !8
  %32 = load ptr, ptr %2, align 8, !tbaa !3
  %33 = getelementptr inbounds nuw %struct._exr_decode_pipeline, ptr %32, i32 0, i32 1
  %34 = load ptr, ptr %33, align 8, !tbaa !28
  %35 = getelementptr inbounds %struct.exr_coding_channel_info_t, ptr %34, i64 0
  %36 = getelementptr inbounds nuw %struct.exr_coding_channel_info_t, ptr %35, i32 0, i32 11
  %37 = load i32, ptr %36, align 4, !tbaa !37
  store i32 %37, ptr %10, align 4, !tbaa !8
  %38 = load ptr, ptr %2, align 8, !tbaa !3
  %39 = getelementptr inbounds nuw %struct._exr_decode_pipeline, ptr %38, i32 0, i32 1
  %40 = load ptr, ptr %39, align 8, !tbaa !28
  %41 = getelementptr inbounds %struct.exr_coding_channel_info_t, ptr %40, i64 0
  %42 = getelementptr inbounds nuw %struct.exr_coding_channel_info_t, ptr %41, i32 0, i32 12
  %43 = load ptr, ptr %42, align 8, !tbaa !10
  store ptr %43, ptr %7, align 8, !tbaa !20
  %44 = load ptr, ptr %2, align 8, !tbaa !3
  %45 = getelementptr inbounds nuw %struct._exr_decode_pipeline, ptr %44, i32 0, i32 7
  %46 = load i32, ptr %45, align 8, !tbaa !27
  %47 = load i32, ptr %8, align 4, !tbaa !8
  %48 = mul nsw i32 %46, %47
  %49 = mul nsw i32 %48, 6
  %50 = load ptr, ptr %3, align 8, !tbaa !20
  %51 = sext i32 %49 to i64
  %52 = getelementptr inbounds i8, ptr %50, i64 %51
  store ptr %52, ptr %3, align 8, !tbaa !20
  call void @llvm.lifetime.start.p0(i64 4, ptr %11) #6
  %53 = load ptr, ptr %2, align 8, !tbaa !3
  %54 = getelementptr inbounds nuw %struct._exr_decode_pipeline, ptr %53, i32 0, i32 7
  %55 = load i32, ptr %54, align 8, !tbaa !27
  store i32 %55, ptr %11, align 4, !tbaa !8
  br label %56

56:                                               ; preds = %120, %1
  %57 = load i32, ptr %11, align 4, !tbaa !8
  %58 = load i32, ptr %9, align 4, !tbaa !8
  %59 = icmp slt i32 %57, %58
  br i1 %59, label %61, label %60

60:                                               ; preds = %56
  store i32 2, ptr %12, align 4
  call void @llvm.lifetime.end.p0(i64 4, ptr %11) #6
  br label %123

61:                                               ; preds = %56
  call void @llvm.lifetime.start.p0(i64 8, ptr %13) #6
  %62 = load ptr, ptr %7, align 8, !tbaa !20
  store ptr %62, ptr %13, align 8, !tbaa !73
  %63 = load ptr, ptr %3, align 8, !tbaa !20
  store ptr %63, ptr %4, align 8, !tbaa !42
  %64 = load ptr, ptr %4, align 8, !tbaa !42
  %65 = load i32, ptr %8, align 4, !tbaa !8
  %66 = sext i32 %65 to i64
  %67 = getelementptr inbounds i16, ptr %64, i64 %66
  store ptr %67, ptr %5, align 8, !tbaa !42
  %68 = load ptr, ptr %5, align 8, !tbaa !42
  %69 = load i32, ptr %8, align 4, !tbaa !8
  %70 = sext i32 %69 to i64
  %71 = getelementptr inbounds i16, ptr %68, i64 %70
  store ptr %71, ptr %6, align 8, !tbaa !42
  %72 = load i32, ptr %8, align 4, !tbaa !8
  %73 = mul nsw i32 %72, 6
  %74 = load ptr, ptr %3, align 8, !tbaa !20
  %75 = sext i32 %73 to i64
  %76 = getelementptr inbounds i8, ptr %74, i64 %75
  store ptr %76, ptr %3, align 8, !tbaa !20
  call void @llvm.lifetime.start.p0(i64 4, ptr %14) #6
  store i32 0, ptr %14, align 4, !tbaa !8
  br label %77

77:                                               ; preds = %112, %61
  %78 = load i32, ptr %14, align 4, !tbaa !8
  %79 = load i32, ptr %8, align 4, !tbaa !8
  %80 = icmp slt i32 %78, %79
  br i1 %80, label %82, label %81

81:                                               ; preds = %77
  store i32 5, ptr %12, align 4
  call void @llvm.lifetime.end.p0(i64 4, ptr %14) #6
  br label %115

82:                                               ; preds = %77
  %83 = load ptr, ptr %4, align 8, !tbaa !42
  %84 = load i32, ptr %14, align 4, !tbaa !8
  %85 = sext i32 %84 to i64
  %86 = getelementptr inbounds i16, ptr %83, i64 %85
  %87 = load i16, ptr %86, align 2, !tbaa !44
  %88 = call zeroext i16 @one_to_native16(i16 noundef zeroext %87)
  %89 = call float @half_to_float(i16 noundef zeroext %88)
  %90 = load ptr, ptr %13, align 8, !tbaa !73
  %91 = getelementptr inbounds float, ptr %90, i64 0
  store float %89, ptr %91, align 4, !tbaa !46
  %92 = load ptr, ptr %5, align 8, !tbaa !42
  %93 = load i32, ptr %14, align 4, !tbaa !8
  %94 = sext i32 %93 to i64
  %95 = getelementptr inbounds i16, ptr %92, i64 %94
  %96 = load i16, ptr %95, align 2, !tbaa !44
  %97 = call zeroext i16 @one_to_native16(i16 noundef zeroext %96)
  %98 = call float @half_to_float(i16 noundef zeroext %97)
  %99 = load ptr, ptr %13, align 8, !tbaa !73
  %100 = getelementptr inbounds float, ptr %99, i64 1
  store float %98, ptr %100, align 4, !tbaa !46
  %101 = load ptr, ptr %6, align 8, !tbaa !42
  %102 = load i32, ptr %14, align 4, !tbaa !8
  %103 = sext i32 %102 to i64
  %104 = getelementptr inbounds i16, ptr %101, i64 %103
  %105 = load i16, ptr %104, align 2, !tbaa !44
  %106 = call zeroext i16 @one_to_native16(i16 noundef zeroext %105)
  %107 = call float @half_to_float(i16 noundef zeroext %106)
  %108 = load ptr, ptr %13, align 8, !tbaa !73
  %109 = getelementptr inbounds float, ptr %108, i64 2
  store float %107, ptr %109, align 4, !tbaa !46
  %110 = load ptr, ptr %13, align 8, !tbaa !73
  %111 = getelementptr inbounds float, ptr %110, i64 3
  store ptr %111, ptr %13, align 8, !tbaa !73
  br label %112

112:                                              ; preds = %82
  %113 = load i32, ptr %14, align 4, !tbaa !8
  %114 = add nsw i32 %113, 1
  store i32 %114, ptr %14, align 4, !tbaa !8
  br label %77, !llvm.loop !77

115:                                              ; preds = %81
  %116 = load i32, ptr %10, align 4, !tbaa !8
  %117 = load ptr, ptr %7, align 8, !tbaa !20
  %118 = sext i32 %116 to i64
  %119 = getelementptr inbounds i8, ptr %117, i64 %118
  store ptr %119, ptr %7, align 8, !tbaa !20
  call void @llvm.lifetime.end.p0(i64 8, ptr %13) #6
  br label %120

120:                                              ; preds = %115
  %121 = load i32, ptr %11, align 4, !tbaa !8
  %122 = add nsw i32 %121, 1
  store i32 %122, ptr %11, align 4, !tbaa !8
  br label %56, !llvm.loop !78

123:                                              ; preds = %60
  store i32 1, ptr %12, align 4
  call void @llvm.lifetime.end.p0(i64 4, ptr %10) #6
  call void @llvm.lifetime.end.p0(i64 4, ptr %9) #6
  call void @llvm.lifetime.end.p0(i64 4, ptr %8) #6
  call void @llvm.lifetime.end.p0(i64 8, ptr %7) #6
  call void @llvm.lifetime.end.p0(i64 8, ptr %6) #6
  call void @llvm.lifetime.end.p0(i64 8, ptr %5) #6
  call void @llvm.lifetime.end.p0(i64 8, ptr %4) #6
  call void @llvm.lifetime.end.p0(i64 8, ptr %3) #6
  ret i32 0
}