; Function Attrs: nofree norecurse nosync nounwind memory(readwrite, inaccessiblemem: none) uwtable
define internal noundef i32 @unpack_half_to_float_3chan_interleave(ptr noundef readonly captures(none) %0) #1 {
  %2 = getelementptr inbounds nuw i8, ptr %0, i64 8
  %3 = load ptr, ptr %2, align 8, !tbaa !22
  %4 = getelementptr inbounds nuw i8, ptr %3, i64 12
  %5 = load i32, ptr %4, align 4, !tbaa !65
  %6 = getelementptr inbounds nuw i8, ptr %0, i64 44
  %7 = load i32, ptr %6, align 4, !tbaa !16
  %8 = getelementptr inbounds nuw i8, ptr %0, i64 100
  %9 = load i32, ptr %8, align 4, !tbaa !17
  %10 = sub nsw i32 %7, %9
  %11 = getelementptr inbounds nuw i8, ptr %0, i64 96
  %12 = load i32, ptr %11, align 8, !tbaa !19
  %13 = icmp slt i32 %12, %10
  br i1 %13, label %.lr.ph53, label %._crit_edge54

.lr.ph53:                                         ; preds = %1
  %14 = mul i32 %5, 6
  %15 = getelementptr inbounds nuw i8, ptr %3, i64 36
  %16 = load i32, ptr %15, align 4, !tbaa !32
  %17 = sext i32 %5 to i64
  %18 = sext i32 %14 to i64
  %19 = icmp sgt i32 %5, 0
  %20 = sext i32 %16 to i64
  br i1 %19, label %.lr.ph.us.preheader, label %._crit_edge54

.lr.ph.us.preheader:                              ; preds = %.lr.ph53
  %21 = getelementptr inbounds nuw i8, ptr %3, i64 40
  %22 = load ptr, ptr %21, align 8, !tbaa !3
  %23 = getelementptr inbounds nuw i8, ptr %0, i64 136
  %24 = load ptr, ptr %23, align 8, !tbaa !21
  %25 = mul i32 %14, %12
  %26 = sext i32 %25 to i64
  %27 = getelementptr inbounds i8, ptr %24, i64 %26
  %wide.trip.count = zext nneg i32 %5 to i64
  br label %.lr.ph.us

.lr.ph.us:                                        ; preds = %.lr.ph.us.preheader, %._crit_edge.us
  %.03651.us = phi i32 [ %105, %._crit_edge.us ], [ %12, %.lr.ph.us.preheader ]
  %.03750.us = phi ptr [ %103, %._crit_edge.us ], [ %27, %.lr.ph.us.preheader ]
  %.03849.us = phi ptr [ %104, %._crit_edge.us ], [ %22, %.lr.ph.us.preheader ]
  %28 = getelementptr inbounds nuw i16, ptr %.03750.us, i64 %17
  %29 = getelementptr inbounds nuw i16, ptr %28, i64 %17
  br label %30

30:                                               ; preds = %.lr.ph.us, %half_to_float.exit46.us
  %indvars.iv = phi i64 [ 0, %.lr.ph.us ], [ %indvars.iv.next, %half_to_float.exit46.us ]
  %.03547.us = phi ptr [ %.03849.us, %.lr.ph.us ], [ %102, %half_to_float.exit46.us ]
  %31 = getelementptr inbounds nuw i16, ptr %.03750.us, i64 %indvars.iv
  %32 = load i16, ptr %31, align 2, !tbaa !36
  %33 = zext i16 %32 to i32
  %34 = shl nuw nsw i32 %33, 13
  %35 = and i32 %34, 268427264
  %.signext.i.i.us = sext i16 %32 to i32
  %36 = and i32 %.signext.i.i.us, -2147483648
  %37 = icmp samesign ugt i32 %35, 8388607
  br i1 %37, label %47, label %38, !prof !38

38:                                               ; preds = %30
  %.not.i.i.us = icmp eq i32 %35, 0
  br i1 %.not.i.i.us, label %half_to_float.exit.us, label %39

39:                                               ; preds = %38
  %40 = tail call range(i32 9, 33) i32 @llvm.ctlz.i32(i32 %35, i1 true)
  %41 = add nsw i32 %40, -8
  %42 = shl i32 %35, %41
  %43 = or i32 %36, %42
  %44 = or i32 %43, 947912704
  %45 = shl nuw nsw i32 %41, 23
  %46 = sub nuw i32 %44, %45
  br label %half_to_float.exit.us

47:                                               ; preds = %30
  %48 = or disjoint i32 %35, %36
  %49 = icmp samesign ult i32 %35, 260046848
  br i1 %49, label %52, label %50, !prof !38

50:                                               ; preds = %47
  %51 = or i32 %48, 2139095040
  br label %half_to_float.exit.us

52:                                               ; preds = %47
  %53 = add nuw nsw i32 %48, 939524096
  br label %half_to_float.exit.us

half_to_float.exit.us:                            ; preds = %52, %50, %39, %38
  %.sroa.0.0.i.i.us = phi i32 [ %53, %52 ], [ %51, %50 ], [ %46, %39 ], [ %36, %38 ]
  store i32 %.sroa.0.0.i.i.us, ptr %.03547.us, align 4, !tbaa !39
  %54 = getelementptr inbounds nuw i16, ptr %28, i64 %indvars.iv
  %55 = load i16, ptr %54, align 2, !tbaa !36
  %56 = zext i16 %55 to i32
  %57 = shl nuw nsw i32 %56, 13
  %58 = and i32 %57, 268427264
  %.signext.i.i39.us = sext i16 %55 to i32
  %59 = and i32 %.signext.i.i39.us, -2147483648
  %60 = icmp samesign ugt i32 %58, 8388607
  br i1 %60, label %70, label %61, !prof !38

61:                                               ; preds = %half_to_float.exit.us
  %.not.i.i40.us = icmp eq i32 %58, 0
  br i1 %.not.i.i40.us, label %half_to_float.exit42.us, label %62

62:                                               ; preds = %61
  %63 = tail call range(i32 9, 33) i32 @llvm.ctlz.i32(i32 %58, i1 true)
  %64 = add nsw i32 %63, -8
  %65 = shl i32 %58, %64
  %66 = or i32 %59, %65
  %67 = or i32 %66, 947912704
  %68 = shl nuw nsw i32 %64, 23
  %69 = sub nuw i32 %67, %68
  br label %half_to_float.exit42.us

70:                                               ; preds = %half_to_float.exit.us
  %71 = or disjoint i32 %58, %59
  %72 = icmp samesign ult i32 %58, 260046848
  br i1 %72, label %75, label %73, !prof !38

73:                                               ; preds = %70
  %74 = or i32 %71, 2139095040
  br label %half_to_float.exit42.us

75:                                               ; preds = %70
  %76 = add nuw nsw i32 %71, 939524096
  br label %half_to_float.exit42.us

half_to_float.exit42.us:                          ; preds = %75, %73, %62, %61
  %.sroa.0.0.i.i41.us = phi i32 [ %76, %75 ], [ %74, %73 ], [ %69, %62 ], [ %59, %61 ]
  %77 = getelementptr inbounds nuw i8, ptr %.03547.us, i64 4
  store i32 %.sroa.0.0.i.i41.us, ptr %77, align 4, !tbaa !39
  %78 = getelementptr inbounds nuw i16, ptr %29, i64 %indvars.iv
  %79 = load i16, ptr %78, align 2, !tbaa !36
  %80 = zext i16 %79 to i32
  %81 = shl nuw nsw i32 %80, 13
  %82 = and i32 %81, 268427264
  %.signext.i.i43.us = sext i16 %79 to i32
  %83 = and i32 %.signext.i.i43.us, -2147483648
  %84 = icmp samesign ugt i32 %82, 8388607
  br i1 %84, label %94, label %85, !prof !38

85:                                               ; preds = %half_to_float.exit42.us
  %.not.i.i44.us = icmp eq i32 %82, 0
  br i1 %.not.i.i44.us, label %half_to_float.exit46.us, label %86

86:                                               ; preds = %85
  %87 = tail call range(i32 9, 33) i32 @llvm.ctlz.i32(i32 %82, i1 true)
  %88 = add nsw i32 %87, -8
  %89 = shl i32 %82, %88
  %90 = or i32 %83, %89
  %91 = or i32 %90, 947912704
  %92 = shl nuw nsw i32 %88, 23
  %93 = sub nuw i32 %91, %92
  br label %half_to_float.exit46.us

94:                                               ; preds = %half_to_float.exit42.us
  %95 = or disjoint i32 %82, %83
  %96 = icmp samesign ult i32 %82, 260046848
  br i1 %96, label %99, label %97, !prof !38

97:                                               ; preds = %94
  %98 = or i32 %95, 2139095040
  br label %half_to_float.exit46.us

99:                                               ; preds = %94
  %100 = add nuw nsw i32 %95, 939524096
  br label %half_to_float.exit46.us

half_to_float.exit46.us:                          ; preds = %99, %97, %86, %85
  %.sroa.0.0.i.i45.us = phi i32 [ %100, %99 ], [ %98, %97 ], [ %93, %86 ], [ %83, %85 ]
  %101 = getelementptr inbounds nuw i8, ptr %.03547.us, i64 8
  store i32 %.sroa.0.0.i.i45.us, ptr %101, align 4, !tbaa !39
  %102 = getelementptr inbounds nuw i8, ptr %.03547.us, i64 12
  %indvars.iv.next = add nuw nsw i64 %indvars.iv, 1
  %exitcond.not = icmp eq i64 %indvars.iv.next, %wide.trip.count
  br i1 %exitcond.not, label %._crit_edge.us, label %30, !llvm.loop !68

._crit_edge.us:                                   ; preds = %half_to_float.exit46.us
  %103 = getelementptr inbounds nuw i8, ptr %.03750.us, i64 %18
  %104 = getelementptr inbounds i8, ptr %.03849.us, i64 %20
  %105 = add nsw i32 %.03651.us, 1
  %106 = icmp slt i32 %105, %10
  br i1 %106, label %.lr.ph.us, label %._crit_edge54, !llvm.loop !69

._crit_edge54:                                    ; preds = %._crit_edge.us, %.lr.ph53, %1
  ret i32 0
}